target datalayout = "e-m:e-p270:32:32-p271:32:32-p272:64:64-i64:64-i128:128-f80:128-n8:16:32:64-S128"
target triple = "x86_64-pc-linux-gnu"

%struct._zval_struct = type { %union._zend_value, %union.anon, %union.anon.2 }
%union._zend_value = type { i64 }
%union.anon = type { i32 }
%union.anon.2 = type { i32 }
%struct._zend_string = type { %struct._zend_refcounted_h, i64, i64, [1 x i8] }
%struct._zend_refcounted_h = type { i32, %union.anon.3 }
%union.anon.3 = type { i32 }

; Function Attrs: alwaysinline nounwind uwtable
define internal i32 @zval_gc_flags(i32 noundef %0) #3 {
  %2 = alloca i32, align 4
  store i32 %0, ptr %2, align 4, !tbaa !24
  %3 = load i32, ptr %2, align 4, !tbaa !24
  %4 = lshr i32 %3, 0
  %5 = and i32 %4, 1008
  ret i32 %5
}

; Function Attrs: nounwind uwtable
define hidden void @php_filter_full_special_chars(ptr noundef %0, i64 noundef %1, ptr noundef %2, ptr noundef %3) #0 {
  %5 = alloca ptr, align 8
  %6 = alloca i64, align 8
  %7 = alloca ptr, align 8
  %8 = alloca ptr, align 8
  %9 = alloca ptr, align 8
  %10 = alloca i32, align 4
  %11 = alloca ptr, align 8
  %12 = alloca ptr, align 8
  store ptr %0, ptr %5, align 8, !tbaa !4
  store i64 %1, ptr %6, align 8, !tbaa !9
  store ptr %2, ptr %7, align 8, !tbaa !4
  store ptr %3, ptr %8, align 8, !tbaa !11
  call void @llvm.lifetime.start.p0(i64 8, ptr %9) #12
  call void @llvm.lifetime.start.p0(i64 4, ptr %10) #12
  %13 = load i64, ptr %6, align 8, !tbaa !9
  %14 = and i64 %13, 128
  %15 = icmp ne i64 %14, 0
  br i1 %15, label %17, label %16

16:                                               ; preds = %4
  store i32 3, ptr %10, align 4, !tbaa !24
  br label %18

17:                                               ; preds = %4
  store i32 0, ptr %10, align 4, !tbaa !24
  br label %18

18:                                               ; preds = %17, %16
  %19 = load ptr, ptr %5, align 8, !tbaa !4
  %20 = getelementptr inbounds nuw %struct._zval_struct, ptr %19, i32 0, i32 0
  %21 = load ptr, ptr %20, align 8, !tbaa !13
  %22 = getelementptr inbounds nuw %struct._zend_string, ptr %21, i32 0, i32 3
  %23 = getelementptr inbounds [1 x i8], ptr %22, i64 0, i64 0
  %24 = load ptr, ptr %5, align 8, !tbaa !4
  %25 = getelementptr inbounds nuw %struct._zval_struct, ptr %24, i32 0, i32 0
  %26 = load ptr, ptr %25, align 8, !tbaa !13
  %27 = getelementptr inbounds nuw %struct._zend_string, ptr %26, i32 0, i32 2
  %28 = load i64, ptr %27, align 8, !tbaa !14
  %29 = load i32, ptr %10, align 4, !tbaa !24
  %30 = call ptr @php_escape_html_entities_ex(ptr noundef %23, i64 noundef %28, i32 noundef 1, i32 noundef %29, ptr noundef null, i1 noundef zeroext false, i1 noundef zeroext false)
  store ptr %30, ptr %9, align 8, !tbaa !18
  %31 = load ptr, ptr %5, align 8, !tbaa !4
  call void @zval_ptr_dtor(ptr noundef %31)
  br label %32

32:                                               ; preds = %18
  call void @llvm.lifetime.start.p0(i64 8, ptr %11) #12
  %33 = load ptr, ptr %5, align 8, !tbaa !4
  store ptr %33, ptr %11, align 8, !tbaa !4
  call void @llvm.lifetime.start.p0(i64 8, ptr %12) #12
  %34 = load ptr, ptr %9, align 8, !tbaa !18
  store ptr %34, ptr %12, align 8, !tbaa !18
  %35 = load ptr, ptr %12, align 8, !tbaa !18
  %36 = load ptr, ptr %11, align 8, !tbaa !4
  %37 = getelementptr inbounds nuw %struct._zval_struct, ptr %36, i32 0, i32 0
  store ptr %35, ptr %37, align 8, !tbaa !13
  %38 = load ptr, ptr %12, align 8, !tbaa !18
  %39 = getelementptr inbounds nuw %struct._zend_string, ptr %38, i32 0, i32 0
  %40 = getelementptr inbounds nuw %struct._zend_refcounted_h, ptr %39, i32 0, i32 1
  %41 = load i32, ptr %40, align 4, !tbaa !13
  %42 = call i32 @zval_gc_flags(i32 noundef %41)
  %43 = and i32 %42, 64
  %44 = icmp ne i32 %43, 0
  %45 = select i1 %44, i32 6, i32 262
  %46 = load ptr, ptr %11, align 8, !tbaa !4
  %47 = getelementptr inbounds nuw %struct._zval_struct, ptr %46, i32 0, i32 1
  store i32 %45, ptr %47, align 8, !tbaa !13
  call void @llvm.lifetime.end.p0(i64 8, ptr %12) #12
  call void @llvm.lifetime.end.p0(i64 8, ptr %11) #12
  br label %48

48:                                               ; preds = %32
  br label %49

49:                                               ; preds = %48
  call void @llvm.lifetime.end.p0(i64 4, ptr %10) #12
  call void @llvm.lifetime.end.p0(i64 8, ptr %9) #12
  ret void
}