; Function Attrs: nounwind uwtable
define hidden void @php_filter_full_special_chars(ptr noundef %0, i64 noundef %1, ptr noundef readnone captures(none) %2, ptr noundef readnone captures(none) %3) local_unnamed_addr #0 {
  %5 = and i64 %1, 128
  %.not = icmp eq i64 %5, 0
  %. = select i1 %.not, i32 3, i32 0
  %6 = load ptr, ptr %0, align 8, !tbaa !4
  %7 = getelementptr inbounds nuw i8, ptr %6, i64 24
  %8 = getelementptr inbounds nuw i8, ptr %6, i64 16
  %9 = load i64, ptr %8, align 8, !tbaa !7
  %10 = tail call ptr @php_escape_html_entities_ex(ptr noundef nonnull %7, i64 noundef %9, i32 noundef 1, i32 noundef %., ptr noundef null, i1 noundef zeroext false, i1 noundef zeroext false) #9
  tail call void @zval_ptr_dtor(ptr noundef nonnull %0) #9
  store ptr %10, ptr %0, align 8, !tbaa !4
  %11 = getelementptr inbounds nuw i8, ptr %10, i64 4
  %12 = load i32, ptr %11, align 4, !tbaa !4
  %13 = and i32 %12, 64
  %.not10 = icmp eq i32 %13, 0
  %14 = select i1 %.not10, i32 262, i32 6
  %15 = getelementptr inbounds nuw i8, ptr %0, i64 8
  store i32 %14, ptr %15, align 8, !tbaa !4
  ret void
}